(lp1
c__builtin__
set
p2
((lp3
VBLOCKQUOTE
p4
aVtt
p5
aVOBJECT
p6
aVkbd
p7
aVarea
p8
aVcode
p9
aVLINK
p10
aVBR
p11
aVOPTGROUP
p12
aVfont
p13
aVSUB
p14
aVnoscript
p15
aVstyle
p16
aVimg
p17
aVtitle
p18
aVmenu
p19
aVFRAME
p20
aVtr
p21
aVparam
p22
aVli
p23
aVscript
p24
aVtfoot
p25
aVth
p26
aVinput
p27
aVtd
p28
aVUL
p29
aVBODY
p30
aVdl
p31
aVblockquote
p32
aVfieldset
p33
aVTH
p34
aVbig
p35
aVdd
p36
aVP
aVBASE
p37
aVabbr
p38
aVoptgroup
p39
aVdt
p40
aVMAP
p41
aVOL
p42
aVTEXTAREA
p43
aVACRONYM
p44
aVMENU
p45
aVbutton
p46
aVisindex
p47
aVp
aVADDRESS
p48
aVsmall
p49
aVdiv
p50
aVdir
p51
aVem
p52
aVbody
p53
aVCODE
p54
aVHR
p55
aVframe
p56
aVISINDEX
p57
aVSTYLE
p58
aVLABEL
p59
aVMETA
p60
aVDEL
p61
aVLI
p62
aVVAR
p63
aVFONT
p64
aVSELECT
p65
aVNOFRAMES
p66
aVCENTER
p67
aVbdo
p68
aVKBD
p69
aVlabel
p70
aVBASEFONT
p71
aVHTML
p72
aVsup
p73
aVEM
p74
aVFRAMESET
p75
aVFIELDSET
p76
aVacronym
p77
aVBDO
p78
aVPARAM
p79
aVS
aVbase
p80
aVbr
p81
aVaddress
p82
aVINPUT
p83
aVstrong
p84
aVlegend
p85
aVol
p86
aVH2
p87
aVH3
p88
aVBUTTON
p89
aVH1
p90
aVH6
p91
aVH4
p92
aVH5
p93
aVcaption
p94
aVs
aVSTRIKE
p95
aVcol
p96
aVOPTION
p97
aVTITLE
p98
aVh2
p99
aVh3
p100
aVh1
p101
aVh6
p102
aVh4
p103
aVh5
p104
aVSUP
p105
aVSMALL
p106
aVtable
p107
aVSTRONG
p108
aVCOL
p109
aVselect
p110
aVnoframes
p111
aVspan
p112
aVAREA
p113
aVAPPLET
p114
aVdfn
p115
aVstrike
p116
aVTABLE
p117
aVTHEAD
p118
aVcite
p119
aVthead
p120
aVhead
p121
aVB
aVoption
p122
aVform
p123
aVhr
p124
aVvar
p125
aVDFN
p126
aVlink
p127
aVbasefont
p128
aVb
aVSPAN
p129
aVcolgroup
p130
aVul
p131
aVapplet
p132
aVmeta
p133
aVdel
p134
aViframe
p135
aVpre
p136
aVframeset
p137
aVDL
p138
aVDD
p139
aVTBODY
p140
aVins
p141
aVDIV
p142
aVINS
p143
aVDT
p144
aVDIR
p145
aVNOSCRIPT
p146
aVIMG
p147
aVCOLGROUP
p148
aVBIG
p149
aVTT
p150
aVTR
p151
aVtbody
p152
aVLEGEND
p153
aVhtml
p154
aVIFRAME
p155
aVSCRIPT
p156
aVTD
p157
aVsamp
p158
aVA
aVmap
p159
aVHEAD
p160
aVFORM
p161
aVI
aVobject
p162
aVQ
aVCAPTION
p163
aVU
aVABBR
p164
aVPRE
p165
aVsub
p166
aVa
aVcenter
p167
aVtextarea
p168
aVi
aVq
aVu
aVSAMP
p169
aVCITE
p170
aVTFOOT
p171
atRp172
a(dp173
g4
(dp174
S'end'
p175
V
sS'description'
p176
Vlong quotation
p177
sS'deprecated'
p178
V
sS'DTD'
p179
V
sS'start'
p180
V
sS'empty'
p181
V
ssg5
(dp182
g175
V
sg176
Vteletype or monospaced text style
p183
sg178
V
sg179
V
sg180
V
sg181
V
ssg6
(dp184
g175
V
sg176
Vgeneric embedded object
p185
sg178
V
sg179
V
sg180
V
sg181
V
ssg7
(dp186
g175
V
sg176
Vtext to be entered by the user
p187
sg178
V
sg179
V
sg180
V
sg181
V
ssg8
(dp188
g175
VF
sg176
Vclient-side image map area
p189
sg178
V
sg179
V
sg180
V
sg181
VE
ssg9
(dp190
g175
V
sg176
Vcomputer code fragment
p191
sg178
V
sg179
V
sg180
V
sg181
V
ssg10
(dp192
g175
VF
sg176
Va media-independent link
p193
sg178
V
sg179
V
sg180
V
sg181
VE
ssg11
(dp194
g175
VF
sg176
Vforced line break
p195
sg178
V
sg179
V
sg180
V
sg181
VE
ssg12
(dp196
g175
V
sg176
Voption group
p197
sg178
V
sg179
V
sg180
V
sg181
V
ssg13
(dp198
g175
V
sg176
Vlocal change to font
p199
sg178
VD
sg179
VL
sg180
V
sg181
V
ssg14
(dp200
g175
V
sg176
Vsubscript
p201
sg178
V
sg179
V
sg180
V
sg181
V
ssg15
(dp202
g175
V
sg176
Valternate content container for nonscript-based rendering
p203
sg178
V
sg179
V
sg180
V
sg181
V
ssg16
(dp204
g175
V
sg176
Vstyle info
p205
sg178
V
sg179
V
sg180
V
sg181
V
ssg17
(dp206
g175
VF
sg176
VEmbedded image
p207
sg178
V
sg179
V
sg180
V
sg181
VE
ssg18
(dp208
g175
V
sg176
Vdocument title
p209
sg178
V
sg179
V
sg180
V
sg181
V
ssg19
(dp210
g175
V
sg176
Vmenu list
p211
sg178
VD
sg179
VL
sg180
V
sg181
V
ssg20
(dp212
g175
VF
sg176
Vsubwindow
p213
sg178
V
sg179
VF
sg180
V
sg181
VE
ssg21
(dp214
g175
VO
sg176
Vtable row
p215
sg178
V
sg179
V
sg180
V
sg181
V
ssg22
(dp216
g175
VF
sg176
Vnamed property value
p217
sg178
V
sg179
V
sg180
V
sg181
VE
ssg23
(dp218
g175
VO
sg176
Vlist item
p219
sg178
V
sg179
V
sg180
V
sg181
V
ssg24
(dp220
g175
V
sg176
Vscript statements
p221
sg178
V
sg179
V
sg180
V
sg181
V
ssg25
(dp222
g175
VO
sg176
Vtable footer
p223
sg178
V
sg179
V
sg180
V
sg181
V
ssg26
(dp224
g175
VO
sg176
Vtable header cell
p225
sg178
V
sg179
V
sg180
V
sg181
V
ssg27
(dp226
g175
VF
sg176
Vform control
p227
sg178
V
sg179
V
sg180
V
sg181
VE
ssg28
(dp228
g175
VO
sg176
Vtable data cell
p229
sg178
V
sg179
V
sg180
V
sg181
V
ssg29
(dp230
g175
V
sg176
Vunordered list
p231
sg178
V
sg179
V
sg180
V
sg181
V
ssg30
(dp232
g175
VO
sg176
Vdocument body
p233
sg178
V
sg179
V
sg180
VO
sg181
V
ssg31
(dp234
g175
V
sg176
Vdefinition list
p235
sg178
V
sg179
V
sg180
V
sg181
V
ssg32
g174
sg33
(dp236
g175
V
sg176
Vform control group
p237
sg178
V
sg179
V
sg180
V
sg181
V
ssg34
g224
sg35
(dp238
g175
V
sg176
Vlarge text style
p239
sg178
V
sg179
V
sg180
V
sg181
V
ssg36
(dp240
g175
VO
sg176
Vdefinition description
p241
sg178
V
sg179
V
sg180
V
sg181
V
ssVP
(dp242
g175
VO
sg176
Vparagraph
p243
sg178
V
sg179
V
sg180
V
sg181
V
ssg37
(dp244
g175
VF
sg176
Vdocument base URI
p245
sg178
V
sg179
V
sg180
V
sg181
VE
ssg38
(dp246
g175
V
sg176
Vabbreviated form (e.g., WWW, HTTP,etc.)
p247
sg178
V
sg179
V
sg180
V
sg181
V
ssg39
g196
sg40
(dp248
g175
VO
sg176
Vdefinition term
p249
sg178
V
sg179
V
sg180
V
sg181
V
ssg41
(dp250
g175
V
sg176
Vclient-side image map
p251
sg178
V
sg179
V
sg180
V
sg181
V
ssg42
(dp252
g175
V
sg176
Vordered list
p253
sg178
V
sg179
V
sg180
V
sg181
V
ssg43
(dp254
g175
V
sg176
Vmulti-line text field
p255
sg178
V
sg179
V
sg180
V
sg181
V
ssg44
(dp256
g175
V
sg176
V
sg178
V
sg179
V
sg180
V
sg181
V
ssg45
g210
sg46
(dp257
g175
V
sg176
Vpush button
p258
sg178
V
sg179
V
sg180
V
sg181
V
ssg47
(dp259
g175
VF
sg176
Vsingle line prompt
p260
sg178
VD
sg179
VL
sg180
V
sg181
VE
ssVp
g242
sg48
(dp261
g175
V
sg176
Vinformation on author
p262
sg178
V
sg179
V
sg180
V
sg181
V
ssg49
(dp263
g175
V
sg176
Vsmall text style
p264
sg178
V
sg179
V
sg180
V
sg181
V
ssg50
(dp265
g175
V
sg176
Vgeneric language/style container
p266
sg178
V
sg179
V
sg180
V
sg181
V
ssg51
(dp267
g175
V
sg176
Vdirectory list
p268
sg178
VD
sg179
VL
sg180
V
sg181
V
ssg52
(dp269
g175
V
sg176
Vemphasis
p270
sg178
V
sg179
V
sg180
V
sg181
V
ssg53
g232
sg54
g190
sg55
(dp271
g175
VF
sg176
Vhorizontal rule
p272
sg178
V
sg179
V
sg180
V
sg181
VE
ssg56
g212
sg57
g259
sg58
g204
sg59
(dp273
g175
V
sg176
Vform field label text
p274
sg178
V
sg179
V
sg180
V
sg181
V
ssg60
(dp275
g175
VF
sg176
Vgeneric metainformation
p276
sg178
V
sg179
V
sg180
V
sg181
VE
ssg61
(dp277
g175
V
sg176
Vdeleted text
p278
sg178
V
sg179
V
sg180
V
sg181
V
ssg62
g218
sg63
(dp279
g175
V
sg176
Vinstance of a variable or programargument
p280
sg178
V
sg179
V
sg180
V
sg181
V
ssg64
g198
sg65
(dp281
g175
V
sg176
Voption selector
p282
sg178
V
sg179
V
sg180
V
sg181
V
ssg66
(dp283
g175
V
sg176
Valternate content container for nonframe-based rendering
p284
sg178
V
sg179
VF
sg180
V
sg181
V
ssg67
(dp285
g175
V
sg176
Vshorthand for DIV align=center
p286
sg178
VD
sg179
VL
sg180
V
sg181
V
ssg68
(dp287
g175
V
sg176
VI18N BiDi over-ride
p288
sg178
V
sg179
V
sg180
V
sg181
V
ssg69
g186
sg70
g273
sg71
(dp289
g175
VF
sg176
Vbase font size
p290
sg178
VD
sg179
VL
sg180
V
sg181
VE
ssg72
(dp291
g175
VO
sg176
Vdocument root element
p292
sg178
V
sg179
V
sg180
VO
sg181
V
ssg73
(dp293
g175
V
sg176
Vsuperscript
p294
sg178
V
sg179
V
sg180
V
sg181
V
ssg74
g269
sg75
(dp295
g175
V
sg176
Vwindow subdivision
p296
sg178
V
sg179
VF
sg180
V
sg181
V
ssg76
g236
sg77
g256
sg78
g287
sg79
g216
sVS
(dp297
g175
V
sg176
Vstrike-through text style
p298
sg178
VD
sg179
VL
sg180
V
sg181
V
ssg80
g244
sg81
g194
sg82
g261
sg83
g226
sg84
(dp299
g175
V
sg176
Vstrong emphasis
p300
sg178
V
sg179
V
sg180
V
sg181
V
ssg85
(dp301
g175
V
sg176
Vfieldset legend
p302
sg178
V
sg179
V
sg180
V
sg181
V
ssg86
g252
sg87
(dp303
g175
V
sg176
Vheading
p304
sg178
V
sg179
V
sg180
V
sg181
V
ssg88
(dp305
g175
V
sg176
Vheading
p306
sg178
V
sg179
V
sg180
V
sg181
V
ssg89
g257
sg90
(dp307
g175
V
sg176
Vheading
p308
sg178
V
sg179
V
sg180
V
sg181
V
ssg91
(dp309
g175
V
sg176
Vheading
p310
sg178
V
sg179
V
sg180
V
sg181
V
ssg92
(dp311
g175
V
sg176
Vheading
p312
sg178
V
sg179
V
sg180
V
sg181
V
ssg93
(dp313
g175
V
sg176
Vheading
p314
sg178
V
sg179
V
sg180
V
sg181
V
ssg94
(dp315
g175
V
sg176
Vtable caption
p316
sg178
V
sg179
V
sg180
V
sg181
V
ssVs
g297
sg95
(dp317
g175
V
sg176
Vstrike-through text
p318
sg178
VD
sg179
VL
sg180
V
sg181
V
ssg96
(dp319
g175
VF
sg176
Vtable column
p320
sg178
V
sg179
V
sg180
V
sg181
VE
ssg97
(dp321
g175
VO
sg176
Vselectable choice
p322
sg178
V
sg179
V
sg180
V
sg181
V
ssg98
g208
sg99
g303
sg100
g305
sg101
g307
sg102
g309
sg103
g311
sg104
g313
sg105
g293
sg106
g263
sg107
(dp323
g175
V
sg176
V
sg178
V
sg179
V
sg180
V
sg181
V
ssg108
g299
sg109
g319
sg110
g281
sg111
g283
sg112
(dp324
g175
V
sg176
Vgeneric language/style container
p325
sg178
V
sg179
V
sg180
V
sg181
V
ssg113
g188
sg114
(dp326
g175
V
sg176
VJava applet
p327
sg178
VD
sg179
VL
sg180
V
sg181
V
ssg115
(dp328
g175
V
sg176
Vinstance definition
p329
sg178
V
sg179
V
sg180
V
sg181
V
ssg116
g317
sg117
g323
sg118
(dp330
g175
VO
sg176
Vtable header
p331
sg178
V
sg179
V
sg180
V
sg181
V
ssg119
(dp332
g175
V
sg176
Vcitation
p333
sg178
V
sg179
V
sg180
V
sg181
V
ssg120
g330
sg121
(dp334
g175
VO
sg176
Vdocument head
p335
sg178
V
sg179
V
sg180
VO
sg181
V
ssVB
(dp336
g175
V
sg176
Vbold text style
p337
sg178
V
sg179
V
sg180
V
sg181
V
ssg122
g321
sg123
(dp338
g175
V
sg176
Vinteractive form
p339
sg178
V
sg179
V
sg180
V
sg181
V
ssg124
g271
sg125
g279
sg126
g328
sg127
g192
sg128
g289
sVb
g336
sg129
g324
sg130
(dp340
g175
VO
sg176
Vtable column group
p341
sg178
V
sg179
V
sg180
V
sg181
V
ssg131
g230
sg132
g326
sg133
g275
sg134
g277
sg135
(dp342
g175
V
sg176
Vinline subwindow
p343
sg178
V
sg179
VL
sg180
V
sg181
V
ssg136
(dp344
g175
V
sg176
Vpreformatted text
p345
sg178
V
sg179
V
sg180
V
sg181
V
ssg137
g295
sg138
g234
sg139
g240
sg140
(dp346
g175
VO
sg176
Vtable body
p347
sg178
V
sg179
V
sg180
VO
sg181
V
ssg141
(dp348
g175
V
sg176
Vinserted text
p349
sg178
V
sg179
V
sg180
V
sg181
V
ssg142
g265
sg143
g348
sg144
g248
sg145
g267
sg146
g202
sg147
g206
sg148
g340
sg149
g238
sg150
g182
sg151
g214
sg152
g346
sg153
g301
sg154
g291
sg155
g342
sg156
g220
sg157
g228
sg158
(dp350
g175
V
sg176
Vsample program output, scripts,etc.
p351
sg178
V
sg179
V
sg180
V
sg181
V
ssVA
(dp352
g175
V
sg176
Vanchor
p353
sg178
V
sg179
V
sg180
V
sg181
V
ssg159
g250
sg160
g334
sg161
g338
sVI
(dp354
g175
V
sg176
Vitalic text style
p355
sg178
V
sg179
V
sg180
V
sg181
V
ssg162
g184
sVQ
(dp356
g175
V
sg176
Vshort inline quotation
p357
sg178
V
sg179
V
sg180
V
sg181
V
ssg163
g315
sVU
(dp358
g175
V
sg176
Vunderlined text style
p359
sg178
VD
sg179
VL
sg180
V
sg181
V
ssg164
g246
sg165
g344
sg166
g200
sVa
g352
sg167
g285
sg168
g254
sVi
g354
sVq
g356
sVu
g358
sg169
g350
sg170
g332
sg171
g222
sa(dp360
Vcode
p361
(lp362
(lp363
VAPPLET
p364
aVapplet
p365
aa(lp366
asVMULTIPLE
p367
(lp368
(lp369
VSELECT
p370
aVselect
p371
aa(lp372
asVONMOUSEOUT
p373
(lp374
(lp375
a(lp376
VAPPLET
p377
aVBASE
p378
aVBASEFONT
p379
aVBDO
p380
aVBR
p381
aVFONT
p382
aVFRAME
p383
aVFRAMESET
p384
aVHEAD
p385
aVHTML
p386
aVIFRAME
p387
aVISINDEX
p388
aVMETA
p389
aVPARAM
p390
aVSCRIPT
p391
aVSTYLE
p392
aVTITLE
p393
aVapplet
p394
aVbase
p395
aVbasefont
p396
aVbdo
p397
aVbr
p398
aVfont
p399
aVframe
p400
aVframeset
p401
aVhead
p402
aVhtml
p403
aViframe
p404
aVisindex
p405
aVmeta
p406
aVparam
p407
aVscript
p408
aVstyle
p409
aVtitle
p410
aasVSTANDBY
p411
(lp412
(lp413
VOBJECT
p414
aVobject
p415
aa(lp416
asVTEXT
p417
(lp418
(lp419
VBODY
p420
aVbody
p421
aa(lp422
asVOBJECT
p423
(lp424
(lp425
VAPPLET
p426
aVapplet
p427
aa(lp428
asVVALUETYPE
p429
(lp430
(lp431
VPARAM
p432
aVparam
p433
aa(lp434
asVcols
p435
(lp436
(lp437
VFRAMESET
p438
aVframeset
p439
aVTEXTAREA
p440
aVtextarea
p441
aa(lp442
asVdatetime
p443
(lp444
(lp445
VDEL
p446
aVINS
p447
aVdel
p448
aVins
p449
aa(lp450
asVdisabled
p451
(lp452
(lp453
VBUTTON
p454
aVINPUT
p455
aVOPTGROUP
p456
aVOPTION
p457
aVSELECT
p458
aVTEXTAREA
p459
aVbutton
p460
aVinput
p461
aVoptgroup
p462
aVoption
p463
aVselect
p464
aVtextarea
p465
aa(lp466
asVaccept-charset
p467
(lp468
(lp469
VFORM
p470
aVform
p471
aa(lp472
asVhspace
p473
(lp474
(lp475
VAPPLET
p476
aVIMG
p477
aVOBJECT
p478
aVapplet
p479
aVimg
p480
aVobject
p481
aa(lp482
asVLINK
p483
(lp484
(lp485
VBODY
p486
aVbody
p487
aa(lp488
asVCODETYPE
p489
(lp490
(lp491
VOBJECT
p492
aVobject
p493
aa(lp494
asVONKEYUP
p495
(lp496
(lp497
a(lp498
VAPPLET
p499
aVBASE
p500
aVBASEFONT
p501
aVBDO
p502
aVBR
p503
aVFONT
p504
aVFRAME
p505
aVFRAMESET
p506
aVHEAD
p507
aVHTML
p508
aVIFRAME
p509
aVISINDEX
p510
aVMETA
p511
aVPARAM
p512
aVSCRIPT
p513
aVSTYLE
p514
aVTITLE
p515
aVapplet
p516
aVbase
p517
aVbasefont
p518
aVbdo
p519
aVbr
p520
aVfont
p521
aVframe
p522
aVframeset
p523
aVhead
p524
aVhtml
p525
aViframe
p526
aVisindex
p527
aVmeta
p528
aVparam
p529
aVscript
p530
aVstyle
p531
aVtitle
p532
aasValt
p533
(lp534
(lp535
VAPPLET
p536
aVapplet
p537
aVAREA
p538
aVIMG
p539
aVarea
p540
aVimg
p541
aVINPUT
p542
aVinput
p543
aa(lp544
asVONCHANGE
p545
(lp546
(lp547
VINPUT
p548
aVSELECT
p549
aVTEXTAREA
p550
aVinput
p551
aVselect
p552
aVtextarea
p553
aa(lp554
asVwidth
p555
(lp556
(lp557
VHR
p558
aVhr
p559
aVIFRAME
p560
aViframe
p561
aVIMG
p562
aVOBJECT
p563
aVimg
p564
aVobject
p565
aVTABLE
p566
aVtable
p567
aVTD
p568
aVTH
p569
aVtd
p570
aVth
p571
aVAPPLET
p572
aVapplet
p573
aVCOL
p574
aVcol
p575
aVCOLGROUP
p576
aVcolgroup
p577
aVPRE
p578
aVpre
p579
aa(lp580
asVAXIS
p581
(lp582
(lp583
VTD
p584
aVTH
p585
aVtd
p586
aVth
p587
aa(lp588
asVCLASSID
p589
(lp590
(lp591
VOBJECT
p592
aVobject
p593
aa(lp594
asVDEFER
p595
(lp596
(lp597
VSCRIPT
p598
aVscript
p599
aa(lp600
asVONUNLOAD
p601
(lp602
(lp603
VFRAMESET
p604
aVframeset
p605
aVBODY
p606
aVbody
p607
aa(lp608
asVMARGINHEIGHT
p609
(lp610
(lp611
VFRAME
p612
aVIFRAME
p613
aVframe
p614
aViframe
p615
aa(lp616
asVtitle
p617
(lp618
(lp619
a(lp620
VBASE
p621
aVBASEFONT
p622
aVHEAD
p623
aVHTML
p624
aVMETA
p625
aVPARAM
p626
aVSCRIPT
p627
aVTITLE
p628
aVbase
p629
aVbasefont
p630
aVhead
p631
aVhtml
p632
aVmeta
p633
aVparam
p634
aVscript
p635
aVtitle
p636
aasVFRAME
p637
(lp638
(lp639
VTABLE
p640
aVtable
p641
aa(lp642
asVONKEYDOWN
p643
(lp644
(lp645
a(lp646
VAPPLET
p647
aVBASE
p648
aVBASEFONT
p649
aVBDO
p650
aVBR
p651
aVFONT
p652
aVFRAME
p653
aVFRAMESET
p654
aVHEAD
p655
aVHTML
p656
aVIFRAME
p657
aVISINDEX
p658
aVMETA
p659
aVPARAM
p660
aVSCRIPT
p661
aVSTYLE
p662
aVTITLE
p663
aVapplet
p664
aVbase
p665
aVbasefont
p666
aVbdo
p667
aVbr
p668
aVfont
p669
aVframe
p670
aVframeset
p671
aVhead
p672
aVhtml
p673
aViframe
p674
aVisindex
p675
aVmeta
p676
aVparam
p677
aVscript
p678
aVstyle
p679
aVtitle
p680
aasVONSELECT
p681
(lp682
(lp683
VINPUT
p684
aVTEXTAREA
p685
aVinput
p686
aVtextarea
p687
aa(lp688
asVonmousemove
p689
(lp690
(lp691
a(lp692
VAPPLET
p693
aVBASE
p694
aVBASEFONT
p695
aVBDO
p696
aVBR
p697
aVFONT
p698
aVFRAME
p699
aVFRAMESET
p700
aVHEAD
p701
aVHTML
p702
aVIFRAME
p703
aVISINDEX
p704
aVMETA
p705
aVPARAM
p706
aVSCRIPT
p707
aVSTYLE
p708
aVTITLE
p709
aVapplet
p710
aVbase
p711
aVbasefont
p712
aVbdo
p713
aVbr
p714
aVfont
p715
aVframe
p716
aVframeset
p717
aVhead
p718
aVhtml
p719
aViframe
p720
aVisindex
p721
aVmeta
p722
aVparam
p723
aVscript
p724
aVstyle
p725
aVtitle
p726
aasVversion
p727
(lp728
(lp729
VHTML
p730
aVhtml
p731
aa(lp732
asVtext
p733
(lp734
(lp735
g420
ag421
aa(lp736
asVACTION
p737
(lp738
(lp739
VFORM
p740
aVform
p741
aa(lp742
asVVLINK
p743
(lp744
(lp745
VBODY
p746
aVbody
p747
aa(lp748
asVstyle
p749
(lp750
(lp751
a(lp752
VBASE
p753
aVBASEFONT
p754
aVHEAD
p755
aVHTML
p756
aVMETA
p757
aVPARAM
p758
aVSCRIPT
p759
aVSTYLE
p760
aVTITLE
p761
aVbase
p762
aVbasefont
p763
aVhead
p764
aVhtml
p765
aVmeta
p766
aVparam
p767
aVscript
p768
aVstyle
p769
aVtitle
p770
aasVMETHOD
p771
(lp772
(lp773
VFORM
p774
aVform
p775
aa(lp776
asVTABINDEX
p777
(lp778
(lp779
VA
aVAREA
p780
aVBUTTON
p781
aVINPUT
p782
aVOBJECT
p783
aVSELECT
p784
aVTEXTAREA
p785
aVa
aVarea
p786
aVbutton
p787
aVinput
p788
aVobject
p789
aVselect
p790
aVtextarea
p791
aa(lp792
asVCOMPACT
p793
(lp794
(lp795
VDIR
p796
aVDL
p797
aVMENU
p798
aVOL
p799
aVUL
p800
aVdir
p801
aVdl
p802
aVmenu
p803
aVol
p804
aVul
p805
aa(lp806
asVonreset
p807
(lp808
(lp809
VFORM
p810
aVform
p811
aa(lp812
asVCHECKED
p813
(lp814
(lp815
VINPUT
p816
aVinput
p817
aa(lp818
asVonkeypress
p819
(lp820
(lp821
a(lp822
VAPPLET
p823
aVBASE
p824
aVBASEFONT
p825
aVBDO
p826
aVBR
p827
aVFONT
p828
aVFRAME
p829
aVFRAMESET
p830
aVHEAD
p831
aVHTML
p832
aVIFRAME
p833
aVISINDEX
p834
aVMETA
p835
aVPARAM
p836
aVSCRIPT
p837
aVSTYLE
p838
aVTITLE
p839
aVapplet
p840
aVbase
p841
aVbasefont
p842
aVbdo
p843
aVbr
p844
aVfont
p845
aVframe
p846
aVframeset
p847
aVhead
p848
aVhtml
p849
aViframe
p850
aVisindex
p851
aVmeta
p852
aVparam
p853
aVscript
p854
aVstyle
p855
aVtitle
p856
aasVrules
p857
(lp858
(lp859
VTABLE
p860
aVtable
p861
aa(lp862
asVCLEAR
p863
(lp864
(lp865
VBR
p866
aVbr
p867
aa(lp868
asVDATETIME
p869
(lp870
(lp871
g446
ag447
ag448
ag449
aa(lp872
asVnohref
p873
(lp874
(lp875
VAREA
p876
aVarea
p877
aa(lp878
asVVERSION
p879
(lp880
(lp881
g730
ag731
aa(lp882
asVabbr
p883
(lp884
(lp885
VTD
p886
aVTH
p887
aVtd
p888
aVth
p889
aa(lp890
asVbackground
p891
(lp892
(lp893
VBODY
p894
aVbody
p895
aa(lp896
asVMAXLENGTH
p897
(lp898
(lp899
VINPUT
p900
aVinput
p901
aa(lp902
asVSCOPE
p903
(lp904
(lp905
VTD
p906
aVTH
p907
aVtd
p908
aVth
p909
aa(lp910
asVscrolling
p911
(lp912
(lp913
VFRAME
p914
aVIFRAME
p915
aVframe
p916
aViframe
p917
aa(lp918
asVDECLARE
p919
(lp920
(lp921
VOBJECT
p922
aVobject
p923
aa(lp924
asVTARGET
p925
(lp926
(lp927
VA
aVAREA
p928
aVBASE
p929
aVFORM
p930
aVLINK
p931
aVa
aVarea
p932
aVbase
p933
aVform
p934
aVlink
p935
aa(lp936
asVNOHREF
p937
(lp938
(lp939
g876
ag877
aa(lp940
asVname
p941
(lp942
(lp943
VBUTTON
p944
aVTEXTAREA
p945
aVbutton
p946
aVtextarea
p947
aVAPPLET
p948
aVapplet
p949
aVSELECT
p950
aVselect
p951
aVFORM
p952
aVform
p953
aVFRAME
p954
aVIFRAME
p955
aVframe
p956
aViframe
p957
aVIMG
p958
aVimg
p959
aVA
aVa
aVINPUT
p960
aVOBJECT
p961
aVinput
p962
aVobject
p963
aVMAP
p964
aVmap
p965
aVPARAM
p966
aVparam
p967
aVMETA
p968
aVmeta
p969
aa(lp970
asVWIDTH
p971
(lp972
(lp973
g558
ag559
ag560
ag561
ag562
ag563
ag564
ag565
ag566
ag567
ag568
ag569
ag570
ag571
ag572
ag573
ag574
ag575
ag576
ag577
ag578
ag579
aa(lp974
asVshape
p975
(lp976
(lp977
VAREA
p978
aVarea
p979
aVA
aVa
aa(lp980
asVCLASS
p981
(lp982
(lp983
a(lp984
VBASE
p985
aVBASEFONT
p986
aVHEAD
p987
aVHTML
p988
aVMETA
p989
aVPARAM
p990
aVSCRIPT
p991
aVSTYLE
p992
aVTITLE
p993
aVbase
p994
aVbasefont
p995
aVhead
p996
aVhtml
p997
aVmeta
p998
aVparam
p999
aVscript
p1000
aVstyle
p1001
aVtitle
p1002
aasVSTYLE
p1003
(lp1004
(lp1005
a(lp1006
g753
ag754
ag755
ag756
ag757
ag758
ag759
ag760
ag761
ag762
ag763
ag764
ag765
ag766
ag767
ag768
ag769
ag770
aasVNOSHADE
p1007
(lp1008
(lp1009
VHR
p1010
aVhr
p1011
aa(lp1012
asVcoords
p1013
(lp1014
(lp1015
VAREA
p1016
aVarea
p1017
aVA
aVa
aa(lp1018
asVonkeyup
p1019
(lp1020
(lp1021
a(lp1022
g499
ag500
ag501
ag502
ag503
ag504
ag505
ag506
ag507
ag508
ag509
ag510
ag511
ag512
ag513
ag514
ag515
ag516
ag517
ag518
ag519
ag520
ag521
ag522
ag523
ag524
ag525
ag526
ag527
ag528
ag529
ag530
ag531
ag532
aasVONDBLCLICK
p1023
(lp1024
(lp1025
a(lp1026
VAPPLET
p1027
aVBASE
p1028
aVBASEFONT
p1029
aVBDO
p1030
aVBR
p1031
aVFONT
p1032
aVFRAME
p1033
aVFRAMESET
p1034
aVHEAD
p1035
aVHTML
p1036
aVIFRAME
p1037
aVISINDEX
p1038
aVMETA
p1039
aVPARAM
p1040
aVSCRIPT
p1041
aVSTYLE
p1042
aVTITLE
p1043
aVapplet
p1044
aVbase
p1045
aVbasefont
p1046
aVbdo
p1047
aVbr
p1048
aVfont
p1049
aVframe
p1050
aVframeset
p1051
aVhead
p1052
aVhtml
p1053
aViframe
p1054
aVisindex
p1055
aVmeta
p1056
aVparam
p1057
aVscript
p1058
aVstyle
p1059
aVtitle
p1060
aasVdir
p1061
(lp1062
(lp1063
VBDO
p1064
aVbdo
p1065
aa(lp1066
VAPPLET
p1067
aVBASE
p1068
aVBASEFONT
p1069
aVBDO
p1070
aVBR
p1071
aVFRAME
p1072
aVFRAMESET
p1073
aVIFRAME
p1074
aVPARAM
p1075
aVSCRIPT
p1076
aVapplet
p1077
aVbase
p1078
aVbasefont
p1079
aVbdo
p1080
aVbr
p1081
aVframe
p1082
aVframeset
p1083
aViframe
p1084
aVparam
p1085
aVscript
p1086
aasVCODE
p1087
(lp1088
(lp1089
g364
ag365
aa(lp1090
asVREL
p1091
(lp1092
(lp1093
VA
aVLINK
p1094
aVa
aVlink
p1095
aa(lp1096
asVscheme
p1097
(lp1098
(lp1099
VMETA
p1100
aVmeta
p1101
aa(lp1102
asVframe
p1103
(lp1104
(lp1105
g640
ag641
aa(lp1106
asVcodetype
p1107
(lp1108
(lp1109
g492
ag493
aa(lp1110
asVCOLS
p1111
(lp1112
(lp1113
g438
ag439
ag440
ag441
aa(lp1114
asVACCEPT
p1115
(lp1116
(lp1117
VFORM
p1118
aVINPUT
p1119
aVform
p1120
aVinput
p1121
aa(lp1122
asVismap
p1123
(lp1124
(lp1125
VIMG
p1126
aVINPUT
p1127
aVimg
p1128
aVinput
p1129
aa(lp1130
asVNORESIZE
p1131
(lp1132
(lp1133
VFRAME
p1134
aVframe
p1135
aa(lp1136
asVISMAP
p1137
(lp1138
(lp1139
g1126
ag1127
ag1128
ag1129
aa(lp1140
asVCHAROFF
p1141
(lp1142
(lp1143
VCOL
p1144
aVCOLGROUP
p1145
aVTBODY
p1146
aVTD
p1147
aVTFOOT
p1148
aVTH
p1149
aVTHEAD
p1150
aVTR
p1151
aVcol
p1152
aVcolgroup
p1153
aVtbody
p1154
aVtd
p1155
aVtfoot
p1156
aVth
p1157
aVthead
p1158
aVtr
p1159
aa(lp1160
asVvlink
p1161
(lp1162
(lp1163
g746
ag747
aa(lp1164
asVfor
p1165
(lp1166
(lp1167
VLABEL
p1168
aVlabel
p1169
aa(lp1170
asVheaders
p1171
(lp1172
(lp1173
VTD
p1174
aVTH
p1175
aVtd
p1176
aVth
p1177
aa(lp1178
asVCOLOR
p1179
(lp1180
(lp1181
VBASEFONT
p1182
aVFONT
p1183
aVbasefont
p1184
aVfont
p1185
aa(lp1186
asVselected
p1187
(lp1188
(lp1189
VOPTION
p1190
aVoption
p1191
aa(lp1192
asVrev
p1193
(lp1194
(lp1195
VA
aVLINK
p1196
aVa
aVlink
p1197
aa(lp1198
asVlabel
p1199
(lp1200
(lp1201
VOPTION
p1202
aVoption
p1203
aVOPTGROUP
p1204
aVoptgroup
p1205
aa(lp1206
asVcontent
p1207
(lp1208
(lp1209
VMETA
p1210
aVmeta
p1211
aa(lp1212
asVREADONLY
p1213
(lp1214
(lp1215
VTEXTAREA
p1216
aVtextarea
p1217
aVINPUT
p1218
aVinput
p1219
aa(lp1220
asVnoshade
p1221
(lp1222
(lp1223
g1010
ag1011
aa(lp1224
asVrel
p1225
(lp1226
(lp1227
VA
ag1094
aVa
ag1095
aa(lp1228
asVCOORDS
p1229
(lp1230
(lp1231
g1016
ag1017
aVA
aVa
aa(lp1232
asVonfocus
p1233
(lp1234
(lp1235
VA
aVAREA
p1236
aVBUTTON
p1237
aVINPUT
p1238
aVLABEL
p1239
aVSELECT
p1240
aVTEXTAREA
p1241
aVa
aVarea
p1242
aVbutton
p1243
aVinput
p1244
aVlabel
p1245
aVselect
p1246
aVtextarea
p1247
aa(lp1248
asVcharoff
p1249
(lp1250
(lp1251
g1144
ag1145
ag1146
ag1147
ag1148
ag1149
ag1150
ag1151
ag1152
ag1153
ag1154
ag1155
ag1156
ag1157
ag1158
ag1159
aa(lp1252
asVmethod
p1253
(lp1254
(lp1255
g774
ag775
aa(lp1256
asVcompact
p1257
(lp1258
(lp1259
g796
ag797
ag798
ag799
ag800
ag801
ag802
ag803
ag804
ag805
aa(lp1260
asVFOR
p1261
(lp1262
(lp1263
g1168
ag1169
aa(lp1264
asVONLOAD
p1265
(lp1266
(lp1267
VFRAMESET
p1268
aVframeset
p1269
aVBODY
p1270
aVbody
p1271
aa(lp1272
asValink
p1273
(lp1274
(lp1275
VBODY
p1276
aVbody
p1277
aa(lp1278
asVMEDIA
p1279
(lp1280
(lp1281
VSTYLE
p1282
aVstyle
p1283
aVLINK
p1284
aVlink
p1285
aa(lp1286
asVonkeydown
p1287
(lp1288
(lp1289
a(lp1290
g647
ag648
ag649
ag650
ag651
ag652
ag653
ag654
ag655
ag656
ag657
ag658
ag659
ag660
ag661
ag662
ag663
ag664
ag665
ag666
ag667
ag668
ag669
ag670
ag671
ag672
ag673
ag674
ag675
ag676
ag677
ag678
ag679
ag680
aasVDISABLED
p1291
(lp1292
(lp1293
g454
ag455
ag456
ag457
ag458
ag459
ag460
ag461
ag462
ag463
ag464
ag465
aa(lp1294
asVnoresize
p1295
(lp1296
(lp1297
g1134
ag1135
aa(lp1298
asVspan
p1299
(lp1300
(lp1301
VCOL
p1302
aVcol
p1303
aVCOLGROUP
p1304
aVcolgroup
p1305
aa(lp1306
asVNOWRAP
p1307
(lp1308
(lp1309
VTD
p1310
aVTH
p1311
aVtd
p1312
aVth
p1313
aa(lp1314
asVHSPACE
p1315
(lp1316
(lp1317
g476
ag477
ag478
ag479
ag480
ag481
aa(lp1318
asVSIZE
p1319
(lp1320
(lp1321
VHR
p1322
aVhr
p1323
aVFONT
p1324
aVfont
p1325
aVINPUT
p1326
aVinput
p1327
aVBASEFONT
p1328
aVbasefont
p1329
aVSELECT
p1330
aVselect
p1331
aa(lp1332
asVcodebase
p1333
(lp1334
(lp1335
VOBJECT
p1336
aVobject
p1337
aVAPPLET
p1338
aVapplet
p1339
aa(lp1340
asVROWSPAN
p1341
(lp1342
(lp1343
VTD
p1344
aVTH
p1345
aVtd
p1346
aVth
p1347
aa(lp1348
asVlanguage
p1349
(lp1350
(lp1351
VSCRIPT
p1352
aVscript
p1353
aa(lp1354
asVSTART
p1355
(lp1356
(lp1357
VOL
p1358
aVol
p1359
aa(lp1360
asVALINK
p1361
(lp1362
(lp1363
g1276
ag1277
aa(lp1364
asVONRESET
p1365
(lp1366
(lp1367
g810
ag811
aa(lp1368
asVSELECTED
p1369
(lp1370
(lp1371
g1190
ag1191
aa(lp1372
asVlongdesc
p1373
(lp1374
(lp1375
VIMG
p1376
aVimg
p1377
aVFRAME
p1378
aVIFRAME
p1379
aVframe
p1380
aViframe
p1381
aa(lp1382
asVmaxlength
p1383
(lp1384
(lp1385
g900
ag901
aa(lp1386
asVcellpadding
p1387
(lp1388
(lp1389
VTABLE
p1390
aVtable
p1391
aa(lp1392
asVvaluetype
p1393
(lp1394
(lp1395
g432
ag433
aa(lp1396
asVonmousedown
p1397
(lp1398
(lp1399
a(lp1400
VAPPLET
p1401
aVBASE
p1402
aVBASEFONT
p1403
aVBDO
p1404
aVBR
p1405
aVFONT
p1406
aVFRAME
p1407
aVFRAMESET
p1408
aVHEAD
p1409
aVHTML
p1410
aVIFRAME
p1411
aVISINDEX
p1412
aVMETA
p1413
aVPARAM
p1414
aVSCRIPT
p1415
aVSTYLE
p1416
aVTITLE
p1417
aVapplet
p1418
aVbase
p1419
aVbasefont
p1420
aVbdo
p1421
aVbr
p1422
aVfont
p1423
aVframe
p1424
aVframeset
p1425
aVhead
p1426
aVhtml
p1427
aViframe
p1428
aVisindex
p1429
aVmeta
p1430
aVparam
p1431
aVscript
p1432
aVstyle
p1433
aVtitle
p1434
aasVtabindex
p1435
(lp1436
(lp1437
VA
ag780
ag781
ag782
ag783
ag784
ag785
aVa
ag786
ag787
ag788
ag789
ag790
ag791
aa(lp1438
asVTITLE
p1439
(lp1440
(lp1441
a(lp1442
g621
ag622
ag623
ag624
ag625
ag626
ag627
ag628
ag629
ag630
ag631
ag632
ag633
ag634
ag635
ag636
aasVcolor
p1443
(lp1444
(lp1445
g1182
ag1183
ag1184
ag1185
aa(lp1446
asVcolspan
p1447
(lp1448
(lp1449
VTD
p1450
aVTH
p1451
aVtd
p1452
aVth
p1453
aa(lp1454
asVaccesskey
p1455
(lp1456
(lp1457
VA
aVAREA
p1458
aVBUTTON
p1459
aVINPUT
p1460
aVLABEL
p1461
aVLEGEND
p1462
aVTEXTAREA
p1463
aVa
aVarea
p1464
aVbutton
p1465
aVinput
p1466
aVlabel
p1467
aVlegend
p1468
aVtextarea
p1469
aa(lp1470
asVREV
p1471
(lp1472
(lp1473
VA
ag1196
aVa
ag1197
aa(lp1474
asVonselect
p1475
(lp1476
(lp1477
g684
ag685
ag686
ag687
aa(lp1478
asVheight
p1479
(lp1480
(lp1481
VIFRAME
p1482
aViframe
p1483
aVTD
p1484
aVTH
p1485
aVtd
p1486
aVth
p1487
aVIMG
p1488
aVOBJECT
p1489
aVimg
p1490
aVobject
p1491
aVAPPLET
p1492
aVapplet
p1493
aa(lp1494
asVCHAR
p1495
(lp1496
(lp1497
VCOL
p1498
aVCOLGROUP
p1499
aVTBODY
p1500
aVTD
p1501
aVTFOOT
p1502
aVTH
p1503
aVTHEAD
p1504
aVTR
p1505
aVcol
p1506
aVcolgroup
p1507
aVtbody
p1508
aVtd
p1509
aVtfoot
p1510
aVth
p1511
aVthead
p1512
aVtr
p1513
aa(lp1514
asVHEADERS
p1515
(lp1516
(lp1517
g1174
ag1175
ag1176
ag1177
aa(lp1518
asVhref
p1519
(lp1520
(lp1521
VA
aVAREA
p1522
aVLINK
p1523
aVa
aVarea
p1524
aVlink
p1525
aVBASE
p1526
aVbase
p1527
aa(lp1528
asVonload
p1529
(lp1530
(lp1531
g1268
ag1269
ag1270
ag1271
aa(lp1532
asVONCLICK
p1533
(lp1534
(lp1535
a(lp1536
VAPPLET
p1537
aVBASE
p1538
aVBASEFONT
p1539
aVBDO
p1540
aVBR
p1541
aVFONT
p1542
aVFRAME
p1543
aVFRAMESET
p1544
aVHEAD
p1545
aVHTML
p1546
aVIFRAME
p1547
aVISINDEX
p1548
aVMETA
p1549
aVPARAM
p1550
aVSCRIPT
p1551
aVSTYLE
p1552
aVTITLE
p1553
aVapplet
p1554
aVbase
p1555
aVbasefont
p1556
aVbdo
p1557
aVbr
p1558
aVfont
p1559
aVframe
p1560
aVframeset
p1561
aVhead
p1562
aVhtml
p1563
aViframe
p1564
aVisindex
p1565
aVmeta
p1566
aVparam
p1567
aVscript
p1568
aVstyle
p1569
aVtitle
p1570
aasVCELLPADDING
p1571
(lp1572
(lp1573
g1390
ag1391
aa(lp1574
asVnowrap
p1575
(lp1576
(lp1577
g1310
ag1311
ag1312
ag1313
aa(lp1578
asVONFOCUS
p1579
(lp1580
(lp1581
VA
ag1236
ag1237
ag1238
ag1239
ag1240
ag1241
aVa
ag1242
ag1243
ag1244
ag1245
ag1246
ag1247
aa(lp1582
asVsize
p1583
(lp1584
(lp1585
g1322
ag1323
ag1324
ag1325
ag1326
ag1327
ag1328
ag1329
ag1330
ag1331
aa(lp1586
asVLANG
p1587
(lp1588
(lp1589
a(lp1590
VAPPLET
p1591
aVBASE
p1592
aVBASEFONT
p1593
aVBR
p1594
aVFRAME
p1595
aVFRAMESET
p1596
aVIFRAME
p1597
aVPARAM
p1598
aVSCRIPT
p1599
aVapplet
p1600
aVbase
p1601
aVbasefont
p1602
aVbr
p1603
aVframe
p1604
aVframeset
p1605
aViframe
p1606
aVparam
p1607
aVscript
p1608
aasVrows
p1609
(lp1610
(lp1611
VFRAMESET
p1612
aVframeset
p1613
aVTEXTAREA
p1614
aVtextarea
p1615
aa(lp1616
asVchecked
p1617
(lp1618
(lp1619
g816
ag817
aa(lp1620
asVstart
p1621
(lp1622
(lp1623
g1358
ag1359
aa(lp1624
asVCOLSPAN
p1625
(lp1626
(lp1627
g1450
ag1451
ag1452
ag1453
aa(lp1628
asVACCESSKEY
p1629
(lp1630
(lp1631
VA
ag1458
ag1459
ag1460
ag1461
ag1462
ag1463
aVa
ag1464
ag1465
ag1466
ag1467
ag1468
ag1469
aa(lp1632
asVVSPACE
p1633
(lp1634
(lp1635
VAPPLET
p1636
aVIMG
p1637
aVOBJECT
p1638
aVapplet
p1639
aVimg
p1640
aVobject
p1641
aa(lp1642
asVID
p1643
(lp1644
(lp1645
a(lp1646
VBASE
p1647
aVHEAD
p1648
aVHTML
p1649
aVMETA
p1650
aVSCRIPT
p1651
aVSTYLE
p1652
aVTITLE
p1653
aVbase
p1654
aVhead
p1655
aVhtml
p1656
aVmeta
p1657
aVscript
p1658
aVstyle
p1659
aVtitle
p1660
aasVbgcolor
p1661
(lp1662
(lp1663
VTABLE
p1664
aVtable
p1665
aVTR
p1666
aVtr
p1667
aVTD
p1668
aVTH
p1669
aVtd
p1670
aVth
p1671
aVBODY
p1672
aVbody
p1673
aa(lp1674
asVSHAPE
p1675
(lp1676
(lp1677
g978
ag979
aVA
aVa
aa(lp1678
asVtarget
p1679
(lp1680
(lp1681
VA
ag928
ag929
ag930
ag931
aVa
ag932
ag933
ag934
ag935
aa(lp1682
asVonmouseup
p1683
(lp1684
(lp1685
a(lp1686
VAPPLET
p1687
aVBASE
p1688
aVBASEFONT
p1689
aVBDO
p1690
aVBR
p1691
aVFONT
p1692
aVFRAME
p1693
aVFRAMESET
p1694
aVHEAD
p1695
aVHTML
p1696
aVIFRAME
p1697
aVISINDEX
p1698
aVMETA
p1699
aVPARAM
p1700
aVSCRIPT
p1701
aVSTYLE
p1702
aVTITLE
p1703
aVapplet
p1704
aVbase
p1705
aVbasefont
p1706
aVbdo
p1707
aVbr
p1708
aVfont
p1709
aVframe
p1710
aVframeset
p1711
aVhead
p1712
aVhtml
p1713
aViframe
p1714
aVisindex
p1715
aVmeta
p1716
aVparam
p1717
aVscript
p1718
aVstyle
p1719
aVtitle
p1720
aasVVALIGN
p1721
(lp1722
(lp1723
VCOL
p1724
aVCOLGROUP
p1725
aVTBODY
p1726
aVTD
p1727
aVTFOOT
p1728
aVTH
p1729
aVTHEAD
p1730
aVTR
p1731
aVcol
p1732
aVcolgroup
p1733
aVtbody
p1734
aVtd
p1735
aVtfoot
p1736
aVth
p1737
aVthead
p1738
aVtr
p1739
aa(lp1740
asVscope
p1741
(lp1742
(lp1743
g906
ag907
ag908
ag909
aa(lp1744
asVSCHEME
p1745
(lp1746
(lp1747
g1100
ag1101
aa(lp1748
asVSCROLLING
p1749
(lp1750
(lp1751
g914
ag915
ag916
ag917
aa(lp1752
asVcite
p1753
(lp1754
(lp1755
VBLOCKQUOTE
p1756
aVQ
aVblockquote
p1757
aVq
aVDEL
p1758
aVINS
p1759
aVdel
p1760
aVins
p1761
aa(lp1762
asVENCTYPE
p1763
(lp1764
(lp1765
VFORM
p1766
aVform
p1767
aa(lp1768
asVmedia
p1769
(lp1770
(lp1771
g1282
ag1283
ag1284
ag1285
aa(lp1772
asVonblur
p1773
(lp1774
(lp1775
VA
aVAREA
p1776
aVBUTTON
p1777
aVINPUT
p1778
aVLABEL
p1779
aVSELECT
p1780
aVTEXTAREA
p1781
aVa
aVarea
p1782
aVbutton
p1783
aVinput
p1784
aVlabel
p1785
aVselect
p1786
aVtextarea
p1787
aa(lp1788
asVPROMPT
p1789
(lp1790
(lp1791
VISINDEX
p1792
aVisindex
p1793
aa(lp1794
asVonmouseout
p1795
(lp1796
(lp1797
a(lp1798
g377
ag378
ag379
ag380
ag381
ag382
ag383
ag384
ag385
ag386
ag387
ag388
ag389
ag390
ag391
ag392
ag393
ag394
ag395
ag396
ag397
ag398
ag399
ag400
ag401
ag402
ag403
ag404
ag405
ag406
ag407
ag408
ag409
ag410
aasVsrc
p1799
(lp1800
(lp1801
VSCRIPT
p1802
aVscript
p1803
aVINPUT
p1804
aVinput
p1805
aVFRAME
p1806
aVIFRAME
p1807
aVframe
p1808
aViframe
p1809
aVIMG
p1810
aVimg
p1811
aa(lp1812
asVALIGN
p1813
(lp1814
(lp1815
VCAPTION
p1816
aVcaption
p1817
aVAPPLET
p1818
aVIFRAME
p1819
aVIMG
p1820
aVINPUT
p1821
aVOBJECT
p1822
aVapplet
p1823
aViframe
p1824
aVimg
p1825
aVinput
p1826
aVobject
p1827
aVLEGEND
p1828
aVlegend
p1829
aVTABLE
p1830
aVtable
p1831
aVHR
p1832
aVhr
p1833
aVDIV
p1834
aVH1
p1835
aVH2
p1836
aVH3
p1837
aVH4
p1838
aVH5
p1839
aVH6
p1840
aVP
aVdiv
p1841
aVh1
p1842
aVh2
p1843
aVh3
p1844
aVh4
p1845
aVh5
p1846
aVh6
p1847
aVp
aVCOL
p1848
aVCOLGROUP
p1849
aVTBODY
p1850
aVTD
p1851
aVTFOOT
p1852
aVTH
p1853
aVTHEAD
p1854
aVTR
p1855
aVcol
p1856
aVcolgroup
p1857
aVtbody
p1858
aVtd
p1859
aVtfoot
p1860
aVth
p1861
aVthead
p1862
aVtr
p1863
aa(lp1864
asVvalign
p1865
(lp1866
(lp1867
g1724
ag1725
ag1726
ag1727
ag1728
ag1729
ag1730
ag1731
ag1732
ag1733
ag1734
ag1735
ag1736
ag1737
ag1738
ag1739
aa(lp1868
asVLABEL
p1869
(lp1870
(lp1871
g1202
ag1203
ag1204
ag1205
aa(lp1872
asVSUMMARY
p1873
(lp1874
(lp1875
VTABLE
p1876
aVtable
p1877
aa(lp1878
asVCONTENT
p1879
(lp1880
(lp1881
g1210
ag1211
aa(lp1882
asVBGCOLOR
p1883
(lp1884
(lp1885
g1664
ag1665
ag1666
ag1667
ag1668
ag1669
ag1670
ag1671
ag1672
ag1673
aa(lp1886
asVlink
p1887
(lp1888
(lp1889
g486
ag487
aa(lp1890
asVPROFILE
p1891
(lp1892
(lp1893
VHEAD
p1894
aVhead
p1895
aa(lp1896
asVUSEMAP
p1897
(lp1898
(lp1899
VIMG
p1900
aVINPUT
p1901
aVOBJECT
p1902
aVimg
p1903
aVinput
p1904
aVobject
p1905
aa(lp1906
asVhreflang
p1907
(lp1908
(lp1909
VA
aVLINK
p1910
aVa
aVlink
p1911
aa(lp1912
asVBORDER
p1913
(lp1914
(lp1915
VTABLE
p1916
aVtable
p1917
aVIMG
p1918
aVOBJECT
p1919
aVimg
p1920
aVobject
p1921
aa(lp1922
asVonunload
p1923
(lp1924
(lp1925
g604
ag605
ag606
ag607
aa(lp1926
asVROWS
p1927
(lp1928
(lp1929
g1612
ag1613
ag1614
ag1615
aa(lp1930
asVSPAN
p1931
(lp1932
(lp1933
g1302
ag1303
ag1304
ag1305
aa(lp1934
asVNAME
p1935
(lp1936
(lp1937
g944
ag945
ag946
ag947
ag948
ag949
ag950
ag951
ag952
ag953
ag954
ag955
ag956
ag957
ag958
ag959
aVA
aVa
ag960
ag961
ag962
ag963
ag964
ag965
ag966
ag967
ag968
ag969
aa(lp1938
asVtype
p1939
(lp1940
(lp1941
VA
aVLINK
p1942
aVa
aVlink
p1943
aVOBJECT
p1944
aVobject
p1945
aVPARAM
p1946
aVparam
p1947
aVSCRIPT
p1948
aVscript
p1949
aVSTYLE
p1950
aVstyle
p1951
aVINPUT
p1952
aVinput
p1953
aVLI
p1954
aVli
p1955
aVOL
p1956
aVol
p1957
aVUL
p1958
aVul
p1959
aVBUTTON
p1960
aVbutton
p1961
aa(lp1962
asValign
p1963
(lp1964
(lp1965
g1816
ag1817
ag1818
ag1819
ag1820
ag1821
ag1822
ag1823
ag1824
ag1825
ag1826
ag1827
ag1828
ag1829
ag1830
ag1831
ag1832
ag1833
ag1834
ag1835
ag1836
ag1837
ag1838
ag1839
ag1840
aVP
ag1841
ag1842
ag1843
ag1844
ag1845
ag1846
ag1847
aVp
ag1848
ag1849
ag1850
ag1851
ag1852
ag1853
ag1854
ag1855
ag1856
ag1857
ag1858
ag1859
ag1860
ag1861
ag1862
ag1863
aa(lp1966
asVsummary
p1967
(lp1968
(lp1969
g1876
ag1877
aa(lp1970
asVvalue
p1971
(lp1972
(lp1973
VINPUT
p1974
aVinput
p1975
aVOPTION
p1976
aVoption
p1977
aVPARAM
p1978
aVparam
p1979
aVBUTTON
p1980
aVbutton
p1981
aVLI
p1982
aVli
p1983
aa(lp1984
asVACCEPT-CHARSET
p1985
(lp1986
(lp1987
g470
ag471
aa(lp1988
asVvspace
p1989
(lp1990
(lp1991
g1636
ag1637
ag1638
ag1639
ag1640
ag1641
aa(lp1992
asVONMOUSEOVER
p1993
(lp1994
(lp1995
a(lp1996
VAPPLET
p1997
aVBASE
p1998
aVBASEFONT
p1999
aVBDO
p2000
aVBR
p2001
aVFONT
p2002
aVFRAME
p2003
aVFRAMESET
p2004
aVHEAD
p2005
aVHTML
p2006
aVIFRAME
p2007
aVISINDEX
p2008
aVMETA
p2009
aVPARAM
p2010
aVSCRIPT
p2011
aVSTYLE
p2012
aVTITLE
p2013
aVapplet
p2014
aVbase
p2015
aVbasefont
p2016
aVbdo
p2017
aVbr
p2018
aVfont
p2019
aVframe
p2020
aVframeset
p2021
aVhead
p2022
aVhtml
p2023
aViframe
p2024
aVisindex
p2025
aVmeta
p2026
aVparam
p2027
aVscript
p2028
aVstyle
p2029
aVtitle
p2030
aasVALT
p2031
(lp2032
(lp2033
g536
ag537
ag538
ag539
ag540
ag541
ag542
ag543
aa(lp2034
asVTYPE
p2035
(lp2036
(lp2037
VA
ag1942
aVa
ag1943
ag1944
ag1945
ag1946
ag1947
ag1948
ag1949
ag1950
ag1951
ag1952
ag1953
ag1954
ag1955
ag1956
ag1957
ag1958
ag1959
ag1960
ag1961
aa(lp2038
asVdeclare
p2039
(lp2040
(lp2041
g922
ag923
aa(lp2042
asVclassid
p2043
(lp2044
(lp2045
g592
ag593
aa(lp2046
asVdefer
p2047
(lp2048
(lp2049
g598
ag599
aa(lp2050
asVONSUBMIT
p2051
(lp2052
(lp2053
VFORM
p2054
aVform
p2055
aa(lp2056
asVprompt
p2057
(lp2058
(lp2059
g1792
ag1793
aa(lp2060
asVONMOUSEUP
p2061
(lp2062
(lp2063
a(lp2064
g1687
ag1688
ag1689
ag1690
ag1691
ag1692
ag1693
ag1694
ag1695
ag1696
ag1697
ag1698
ag1699
ag1700
ag1701
ag1702
ag1703
ag1704
ag1705
ag1706
ag1707
ag1708
ag1709
ag1710
ag1711
ag1712
ag1713
ag1714
ag1715
ag1716
ag1717
ag1718
ag1719
ag1720
aasVSRC
p2065
(lp2066
(lp2067
g1802
ag1803
ag1804
ag1805
ag1806
ag1807
ag1808
ag1809
ag1810
ag1811
aa(lp2068
asVCHARSET
p2069
(lp2070
(lp2071
VA
aVLINK
p2072
aVSCRIPT
p2073
aVa
aVlink
p2074
aVscript
p2075
aa(lp2076
asVstandby
p2077
(lp2078
(lp2079
g414
ag415
aa(lp2080
asVaccept
p2081
(lp2082
(lp2083
g1118
ag1119
ag1120
ag1121
aa(lp2084
asVHREFLANG
p2085
(lp2086
(lp2087
VA
ag1910
aVa
ag1911
aa(lp2088
asVchar
p2089
(lp2090
(lp2091
g1498
ag1499
ag1500
ag1501
ag1502
ag1503
ag1504
ag1505
ag1506
ag1507
ag1508
ag1509
ag1510
ag1511
ag1512
ag1513
aa(lp2092
asVHREF
p2093
(lp2094
(lp2095
VA
ag1522
ag1523
aVa
ag1524
ag1525
ag1526
ag1527
aa(lp2096
asVBACKGROUND
p2097
(lp2098
(lp2099
g894
ag895
aa(lp2100
asVface
p2101
(lp2102
(lp2103
VBASEFONT
p2104
aVFONT
p2105
aVbasefont
p2106
aVfont
p2107
aa(lp2108
asVborder
p2109
(lp2110
(lp2111
g1916
ag1917
ag1918
ag1919
ag1920
ag1921
aa(lp2112
asVarchive
p2113
(lp2114
(lp2115
VAPPLET
p2116
aVapplet
p2117
aVOBJECT
p2118
aVobject
p2119
aa(lp2120
asVDIR
p2121
(lp2122
(lp2123
g1064
ag1065
aa(lp2124
g1067
ag1068
ag1069
ag1070
ag1071
ag1072
ag1073
ag1074
ag1075
ag1076
ag1077
ag1078
ag1079
ag1080
ag1081
ag1082
ag1083
ag1084
ag1085
ag1086
aasVaxis
p2125
(lp2126
(lp2127
g584
ag585
ag586
ag587
aa(lp2128
asVonchange
p2129
(lp2130
(lp2131
g548
ag549
ag550
ag551
ag552
ag553
aa(lp2132
asVONMOUSEDOWN
p2133
(lp2134
(lp2135
a(lp2136
g1401
ag1402
ag1403
ag1404
ag1405
ag1406
ag1407
ag1408
ag1409
ag1410
ag1411
ag1412
ag1413
ag1414
ag1415
ag1416
ag1417
ag1418
ag1419
ag1420
ag1421
ag1422
ag1423
ag1424
ag1425
ag1426
ag1427
ag1428
ag1429
ag1430
ag1431
ag1432
ag1433
ag1434
aasVRULES
p2137
(lp2138
(lp2139
g860
ag861
aa(lp2140
asVCELLSPACING
p2141
(lp2142
(lp2143
VTABLE
p2144
aVtable
p2145
aa(lp2146
asVcharset
p2147
(lp2148
(lp2149
VA
ag2072
ag2073
aVa
ag2074
ag2075
aa(lp2150
asVid
p2151
(lp2152
(lp2153
a(lp2154
g1647
ag1648
ag1649
ag1650
ag1651
ag1652
ag1653
ag1654
ag1655
ag1656
ag1657
ag1658
ag1659
ag1660
aasVreadonly
p2155
(lp2156
(lp2157
g1216
ag1217
ag1218
ag1219
aa(lp2158
asVonclick
p2159
(lp2160
(lp2161
a(lp2162
g1537
ag1538
ag1539
ag1540
ag1541
ag1542
ag1543
ag1544
ag1545
ag1546
ag1547
ag1548
ag1549
ag1550
ag1551
ag1552
ag1553
ag1554
ag1555
ag1556
ag1557
ag1558
ag1559
ag1560
ag1561
ag1562
ag1563
ag1564
ag1565
ag1566
ag1567
ag1568
ag1569
ag1570
aasVcellspacing
p2163
(lp2164
(lp2165
g2144
ag2145
aa(lp2166
asVARCHIVE
p2167
(lp2168
(lp2169
g2116
ag2117
ag2118
ag2119
aa(lp2170
asVprofile
p2171
(lp2172
(lp2173
g1894
ag1895
aa(lp2174
asVONBLUR
p2175
(lp2176
(lp2177
VA
ag1776
ag1777
ag1778
ag1779
ag1780
ag1781
aVa
ag1782
ag1783
ag1784
ag1785
ag1786
ag1787
aa(lp2178
asVmultiple
p2179
(lp2180
(lp2181
g370
ag371
aa(lp2182
asVONKEYPRESS
p2183
(lp2184
(lp2185
a(lp2186
g823
ag824
ag825
ag826
ag827
ag828
ag829
ag830
ag831
ag832
ag833
ag834
ag835
ag836
ag837
ag838
ag839
ag840
ag841
ag842
ag843
ag844
ag845
ag846
ag847
ag848
ag849
ag850
ag851
ag852
ag853
ag854
ag855
ag856
aasVLONGDESC
p2187
(lp2188
(lp2189
g1376
ag1377
ag1378
ag1379
ag1380
ag1381
aa(lp2190
asVobject
p2191
(lp2192
(lp2193
g426
ag427
aa(lp2194
asVVALUE
p2195
(lp2196
(lp2197
g1974
ag1975
ag1976
ag1977
ag1978
ag1979
ag1980
ag1981
ag1982
ag1983
aa(lp2198
asVHEIGHT
p2199
(lp2200
(lp2201
g1482
ag1483
ag1484
ag1485
ag1486
ag1487
ag1488
ag1489
ag1490
ag1491
ag1492
ag1493
aa(lp2202
asVCODEBASE
p2203
(lp2204
(lp2205
g1336
ag1337
ag1338
ag1339
aa(lp2206
asVaction
p2207
(lp2208
(lp2209
g740
ag741
aa(lp2210
asVrowspan
p2211
(lp2212
(lp2213
g1344
ag1345
ag1346
ag1347
aa(lp2214
asVONMOUSEMOVE
p2215
(lp2216
(lp2217
a(lp2218
g693
ag694
ag695
ag696
ag697
ag698
ag699
ag700
ag701
ag702
ag703
ag704
ag705
ag706
ag707
ag708
ag709
ag710
ag711
ag712
ag713
ag714
ag715
ag716
ag717
ag718
ag719
ag720
ag721
ag722
ag723
ag724
ag725
ag726
aasVABBR
p2219
(lp2220
(lp2221
g886
ag887
ag888
ag889
aa(lp2222
asVhttp-equiv
p2223
(lp2224
(lp2225
VMETA
p2226
aVmeta
p2227
aa(lp2228
asVDATA
p2229
(lp2230
(lp2231
VOBJECT
p2232
aVobject
p2233
aa(lp2234
asVmarginheight
p2235
(lp2236
(lp2237
g612
ag613
ag614
ag615
aa(lp2238
asVdata
p2239
(lp2240
(lp2241
g2232
ag2233
aa(lp2242
asVclass
p2243
(lp2244
(lp2245
a(lp2246
g985
ag986
ag987
ag988
ag989
ag990
ag991
ag992
ag993
ag994
ag995
ag996
ag997
ag998
ag999
ag1000
ag1001
ag1002
aasVframeborder
p2247
(lp2248
(lp2249
VFRAME
p2250
aVIFRAME
p2251
aVframe
p2252
aViframe
p2253
aa(lp2254
asVenctype
p2255
(lp2256
(lp2257
g1766
ag1767
aa(lp2258
asVlang
p2259
(lp2260
(lp2261
a(lp2262
g1591
ag1592
ag1593
ag1594
ag1595
ag1596
ag1597
ag1598
ag1599
ag1600
ag1601
ag1602
ag1603
ag1604
ag1605
ag1606
ag1607
ag1608
aasVonsubmit
p2263
(lp2264
(lp2265
g2054
ag2055
aa(lp2266
asVLANGUAGE
p2267
(lp2268
(lp2269
g1352
ag1353
aa(lp2270
asVclear
p2271
(lp2272
(lp2273
g866
ag867
aa(lp2274
asVusemap
p2275
(lp2276
(lp2277
g1900
ag1901
ag1902
ag1903
ag1904
ag1905
aa(lp2278
asVonmouseover
p2279
(lp2280
(lp2281
a(lp2282
g1997
ag1998
ag1999
ag2000
ag2001
ag2002
ag2003
ag2004
ag2005
ag2006
ag2007
ag2008
ag2009
ag2010
ag2011
ag2012
ag2013
ag2014
ag2015
ag2016
ag2017
ag2018
ag2019
ag2020
ag2021
ag2022
ag2023
ag2024
ag2025
ag2026
ag2027
ag2028
ag2029
ag2030
aasVFACE
p2283
(lp2284
(lp2285
g2104
ag2105
ag2106
ag2107
aa(lp2286
asVmarginwidth
p2287
(lp2288
(lp2289
VFRAME
p2290
aVIFRAME
p2291
aVframe
p2292
aViframe
p2293
aa(lp2294
asVHTTP-EQUIV
p2295
(lp2296
(lp2297
g2226
ag2227
aa(lp2298
asVondblclick
p2299
(lp2300
(lp2301
a(lp2302
g1027
ag1028
ag1029
ag1030
ag1031
ag1032
ag1033
ag1034
ag1035
ag1036
ag1037
ag1038
ag1039
ag1040
ag1041
ag1042
ag1043
ag1044
ag1045
ag1046
ag1047
ag1048
ag1049
ag1050
ag1051
ag1052
ag1053
ag1054
ag1055
ag1056
ag1057
ag1058
ag1059
ag1060
aasVCITE
p2303
(lp2304
(lp2305
g1756
aVQ
ag1757
aVq
ag1758
ag1759
ag1760
ag1761
aa(lp2306
asVFRAMEBORDER
p2307
(lp2308
(lp2309
g2250
ag2251
ag2252
ag2253
aa(lp2310
asVMARGINWIDTH
p2311
(lp2312
(lp2313
g2290
ag2291
ag2292
ag2293
aa(lp2314
asa.